; ModuleID = '50/666.c'
source_filename = "50/666.c"
target datalayout = "e-m:e-p270:32:32-p271:32:32-p272:64:64-i64:64-f80:128-n8:16:32:64-S128"
target triple = "x86_64-pc-linux-gnu"

@__const.main.days = private unnamed_addr constant [12 x i32] [i32 31, i32 28, i32 31, i32 30, i32 31, i32 30, i32 31, i32 31, i32 30, i32 31, i32 30, i32 31], align 16
@.str = private unnamed_addr constant [3 x i8] c"%d\00", align 1
@.str.1 = private unnamed_addr constant [3 x i8] c"1\0A\00", align 1
@.str.2 = private unnamed_addr constant [4 x i8] c"%d\0A\00", align 1

; Function Attrs: noinline nounwind uwtable
define dso_local i32 @main() #0 {
  %1 = alloca i32, align 4
  %2 = alloca i32, align 4
  %3 = alloca i32, align 4
  %4 = alloca i32, align 4
  %5 = alloca i32, align 4
  %6 = alloca [12 x i32], align 16
  %7 = alloca i32, align 4
  store i32 0, i32* %1, align 4
  %8 = bitcast [12 x i32]* %6 to i8*
  call void @llvm.memcpy.p0i8.p0i8.i64(i8* align 16 %8, i8* align 16 bitcast ([12 x i32]* @__const.main.days to i8*), i64 48, i1 false)
  %9 = call i32 (i8*, ...) @__isoc99_scanf(i8* getelementptr inbounds ([3 x i8], [3 x i8]* @.str, i64 0, i64 0), i32* %2)
  %10 = load i32, i32* %2, align 4
  %11 = icmp eq i32 %10, 7
  br i1 %11, label %12, label %14

12:                                               ; preds = %0
  %13 = call i32 (i8*, ...) @printf(i8* getelementptr inbounds ([3 x i8], [3 x i8]* @.str.1, i64 0, i64 0))
  br label %14

14:                                               ; preds = %12, %0
  store i32 2, i32* %3, align 4
  br label %15

15:                                               ; preds = %61, %14
  %16 = load i32, i32* %3, align 4
  %17 = icmp sle i32 %16, 12
  br i1 %17, label %18, label %64

18:                                               ; preds = %15
  store i32 0, i32* %7, align 4
  store i32 0, i32* %4, align 4
  br label %19

19:                                               ; preds = %31, %18
  %20 = load i32, i32* %4, align 4
  %21 = load i32, i32* %3, align 4
  %22 = sub nsw i32 %21, 1
  %23 = icmp slt i32 %20, %22
  br i1 %23, label %24, label %34

24:                                               ; preds = %19
  %25 = load i32, i32* %4, align 4
  %26 = sext i32 %25 to i64
  %27 = getelementptr inbounds [12 x i32], [12 x i32]* %6, i64 0, i64 %26
  %28 = load i32, i32* %27, align 4
  %29 = load i32, i32* %7, align 4
  %30 = add nsw i32 %29, %28
  store i32 %30, i32* %7, align 4
  br label %31

31:                                               ; preds = %24
  %32 = load i32, i32* %4, align 4
  %33 = add nsw i32 %32, 1
  store i32 %33, i32* %4, align 4
  br label %19

34:                                               ; preds = %19
  %35 = load i32, i32* %7, align 4
  %36 = add nsw i32 %35, 12
  store i32 %36, i32* %7, align 4
  %37 = load i32, i32* %2, align 4
  %38 = load i32, i32* %7, align 4
  %39 = srem i32 %38, 7
  %40 = add nsw i32 %37, %39
  %41 = icmp sle i32 %40, 7
  br i1 %41, label %42, label %47

42:                                               ; preds = %34
  %43 = load i32, i32* %2, align 4
  %44 = load i32, i32* %7, align 4
  %45 = srem i32 %44, 7
  %46 = add nsw i32 %43, %45
  br label %53

47:                                               ; preds = %34
  %48 = load i32, i32* %2, align 4
  %49 = sub nsw i32 %48, 7
  %50 = load i32, i32* %7, align 4
  %51 = srem i32 %50, 7
  %52 = add nsw i32 %49, %51
  br label %53

53:                                               ; preds = %47, %42
  %54 = phi i32 [ %46, %42 ], [ %52, %47 ]
  store i32 %54, i32* %5, align 4
  %55 = load i32, i32* %5, align 4
  %56 = icmp eq i32 %55, 5
  br i1 %56, label %57, label %60

57:                                               ; preds = %53
  %58 = load i32, i32* %3, align 4
  %59 = call i32 (i8*, ...) @printf(i8* getelementptr inbounds ([4 x i8], [4 x i8]* @.str.2, i64 0, i64 0), i32 %58)
  br label %60

60:                                               ; preds = %57, %53
  br label %61

61:                                               ; preds = %60
  %62 = load i32, i32* %3, align 4
  %63 = add nsw i32 %62, 1
  store i32 %63, i32* %3, align 4
  br label %15

64:                                               ; preds = %15
  ret i32 0
}

; Function Attrs: argmemonly nounwind willreturn
declare void @llvm.memcpy.p0i8.p0i8.i64(i8* noalias nocapture writeonly, i8* noalias nocapture readonly, i64, i1 immarg) #1

declare dso_local i32 @__isoc99_scanf(i8*, ...) #2

declare dso_local i32 @printf(i8*, ...) #2


!llvm.module.flags = !{!0}
!llvm.ident = !{!1}

!0 = !{i32 1, !"wchar_size", i32 4}
!1 = !{!"clang version 10.0.0-4ubuntu1 "}
